(dp1
S'pants'
p2
(dp3
S'cam_y'
p4
F-0.20000000000000001
sS'cam_z'
p5
F0.90000000000000002
ssS'shirts'
p6
(dp7
g4
F0.40000000000000002
sg5
F0.69999999999999996
ssS'shorts'
p8
(dp9
g4
F0
sg5
F0.80000000000000004
ss.